target datalayout = "e-m:e-p270:32:32-p271:32:32-p272:64:64-i64:64-i128:128-f80:128-n8:16:32:64-S128"
target triple = "x86_64-pc-linux-gnu"

%struct.TEST_CASE = type { ptr, ptr, i8 }

@testAll = dso_local global i32 1, align 4
@.str.971 = private unnamed_addr constant [33 x i8] c"Index out of range (1 - %d): %d\0A\00", align 1

; Function Attrs: nounwind uwtable
define dso_local i32 @ApiTest_RunIdx(i32 noundef %0) #0 {
  %2 = alloca i32, align 4
  %3 = alloca i32, align 4
  store i32 %0, ptr %3, align 4, !tbaa !10
  %4 = load i32, ptr %3, align 4, !tbaa !10
  %5 = icmp slt i32 %4, 1
  br i1 %5, label %9, label %6

6:                                                ; preds = %1
  %7 = load i32, ptr %3, align 4, !tbaa !10
  %8 = icmp sgt i32 %7, 955
  br i1 %8, label %9, label %12

9:                                                ; preds = %6, %1
  %10 = load i32, ptr %3, align 4, !tbaa !10
  %11 = call i32 (ptr, ...) @printf(ptr noundef @.str.971, i32 noundef 955, i32 noundef %10)
  store i32 -173, ptr %2, align 4
  br label %21

12:                                               ; preds = %6
  store i32 0, ptr @testAll, align 4, !tbaa !10
  %13 = load i32, ptr %3, align 4, !tbaa !10
  %14 = sub nsw i32 %13, 1
  %15 = sext i32 %14 to i64
  %16 = getelementptr inbounds [955 x %struct.TEST_CASE], ptr @testCases, i64 0, i64 %15
  %17 = getelementptr inbounds nuw %struct.TEST_CASE, ptr %16, i32 0, i32 2
  %18 = load i8, ptr %17, align 8
  %19 = and i8 %18, -2
  %20 = or i8 %19, 1
  store i8 %20, ptr %17, align 8
  store i32 0, ptr %2, align 4
  br label %21

21:                                               ; preds = %12, %9
  %22 = load i32, ptr %2, align 4
  ret i32 %22
}