; Function Attrs: nofree nounwind uwtable
define dso_local range(i32 -173, 1) i32 @ApiTest_RunIdx(i32 noundef %0) local_unnamed_addr #8 {
  %2 = add i32 %0, -956
  %or.cond = icmp ult i32 %2, -955
  br i1 %or.cond, label %3, label %5

3:                                                ; preds = %1
  %4 = tail call i32 (ptr, ...) @printf(ptr noundef nonnull dereferenceable(1) @.str.971, i32 noundef 955, i32 noundef %0)
  br label %11

5:                                                ; preds = %1
  store i32 0, ptr @testAll, align 4, !tbaa !67
  %6 = add nsw i32 %0, -1
  %7 = zext nneg i32 %6 to i64
  %8 = getelementptr inbounds nuw [955 x %struct.TEST_CASE], ptr @testCases, i64 0, i64 %7, i32 2
  %9 = load i8, ptr %8, align 8
  %10 = or i8 %9, 1
  store i8 %10, ptr %8, align 8
  br label %11

11:                                               ; preds = %5, %3
  %.0 = phi i32 [ -173, %3 ], [ 0, %5 ]
  ret i32 %.0
}